target datalayout = "e-m:e-p270:32:32-p271:32:32-p272:64:64-i64:64-i128:128-f80:128-n8:16:32:64-S128"
target triple = "x86_64-unknown-linux-gnu"

%"struct.OpenColorIO_v2_4dev::FormatInfo" = type { %"class.std::__cxx11::basic_string", %"class.std::__cxx11::basic_string", i32, i32 }
%"class.std::__cxx11::basic_string" = type { %"struct.std::__cxx11::basic_string<char>::_Alloc_hider", i64, %union.anon }
%"struct.std::__cxx11::basic_string<char>::_Alloc_hider" = type { ptr }
%union.anon = type { i64, [8 x i8] }
%"class.__gnu_cxx::__normal_iterator" = type { ptr }
%"struct.std::_Vector_base" = type { %"struct.std::_Vector_base<OpenColorIO_v2_4dev::FormatInfo, std::allocator<OpenColorIO_v2_4dev::FormatInfo>>::_Vector_impl" }
%"struct.std::_Vector_base<OpenColorIO_v2_4dev::FormatInfo, std::allocator<OpenColorIO_v2_4dev::FormatInfo>>::_Vector_impl" = type { %"struct.std::_Vector_base<OpenColorIO_v2_4dev::FormatInfo, std::allocator<OpenColorIO_v2_4dev::FormatInfo>>::_Vector_impl_data" }
%"struct.std::_Vector_base<OpenColorIO_v2_4dev::FormatInfo, std::allocator<OpenColorIO_v2_4dev::FormatInfo>>::_Vector_impl_data" = type { ptr, ptr, ptr }

@_ZN19OpenColorIO_v2_4devL38FILEFORMAT_COLOR_CORRECTION_COLLECTIONE = internal constant [26 x i8] c"ColorCorrectionCollection\00", align 16
@.str.2 = private unnamed_addr constant [4 x i8] c"ccc\00", align 1

; Function Attrs: mustprogress uwtable
define linkonce_odr hidden void @_ZN19OpenColorIO_v2_4dev10FormatInfoC2ERKS0_(ptr noundef nonnull align 8 dereferenceable(72) %this, ptr noundef nonnull align 8 dereferenceable(72) %0) unnamed_addr #5 comdat align 2 personality ptr @__gxx_personality_v0 {
entry:
  %this.addr = alloca ptr, align 8
  %.addr = alloca ptr, align 8
  %exn.slot = alloca ptr, align 8
  %ehselector.slot = alloca i32, align 4
  store ptr %this, ptr %this.addr, align 8
  store ptr %0, ptr %.addr, align 8
  %this1 = load ptr, ptr %this.addr, align 8
  %name = getelementptr inbounds %"struct.OpenColorIO_v2_4dev::FormatInfo", ptr %this1, i32 0, i32 0
  %1 = load ptr, ptr %.addr, align 8
  %name2 = getelementptr inbounds %"struct.OpenColorIO_v2_4dev::FormatInfo", ptr %1, i32 0, i32 0
  call void @_ZNSt7__cxx1112basic_stringIcSt11char_traitsIcESaIcEEC1ERKS4_(ptr noundef nonnull align 8 dereferenceable(32) %name, ptr noundef nonnull align 8 dereferenceable(32) %name2)
  %extension = getelementptr inbounds %"struct.OpenColorIO_v2_4dev::FormatInfo", ptr %this1, i32 0, i32 1
  %2 = load ptr, ptr %.addr, align 8
  %extension3 = getelementptr inbounds %"struct.OpenColorIO_v2_4dev::FormatInfo", ptr %2, i32 0, i32 1
  invoke void @_ZNSt7__cxx1112basic_stringIcSt11char_traitsIcESaIcEEC1ERKS4_(ptr noundef nonnull align 8 dereferenceable(32) %extension, ptr noundef nonnull align 8 dereferenceable(32) %extension3)
          to label %invoke.cont unwind label %lpad

invoke.cont:                                      ; preds = %entry
  %capabilities = getelementptr inbounds %"struct.OpenColorIO_v2_4dev::FormatInfo", ptr %this1, i32 0, i32 2
  %3 = load ptr, ptr %.addr, align 8
  %capabilities4 = getelementptr inbounds %"struct.OpenColorIO_v2_4dev::FormatInfo", ptr %3, i32 0, i32 2
  call void @llvm.memcpy.p0.p0.i64(ptr align 8 %capabilities, ptr align 8 %capabilities4, i64 8, i1 false)
  ret void

lpad:                                             ; preds = %entry
  %4 = landingpad { ptr, i32 }
          cleanup
  %5 = extractvalue { ptr, i32 } %4, 0
  store ptr %5, ptr %exn.slot, align 8
  %6 = extractvalue { ptr, i32 } %4, 1
  store i32 %6, ptr %ehselector.slot, align 4
  call void @_ZNSt7__cxx1112basic_stringIcSt11char_traitsIcESaIcEED1Ev(ptr noundef nonnull align 8 dereferenceable(32) %name) #3
  br label %eh.resume

eh.resume:                                        ; preds = %lpad
  %exn = load ptr, ptr %exn.slot, align 8
  %sel = load i32, ptr %ehselector.slot, align 4
  %lpad.val = insertvalue { ptr, i32 } poison, ptr %exn, 0
  %lpad.val5 = insertvalue { ptr, i32 } %lpad.val, i32 %sel, 1
  resume { ptr, i32 } %lpad.val5
}

; Function Attrs: mustprogress nounwind uwtable
define linkonce_odr hidden void @_ZN9__gnu_cxx17__normal_iteratorIPN19OpenColorIO_v2_4dev10FormatInfoESt6vectorIS2_SaIS2_EEEC2ERKS3_(ptr noundef nonnull align 8 dereferenceable(8) %this, ptr noundef nonnull align 8 dereferenceable(8) %__i) unnamed_addr #4 comdat align 2 {
entry:
  %this.addr = alloca ptr, align 8
  %__i.addr = alloca ptr, align 8
  store ptr %this, ptr %this.addr, align 8
  store ptr %__i, ptr %__i.addr, align 8
  %this1 = load ptr, ptr %this.addr, align 8
  %_M_current = getelementptr inbounds %"class.__gnu_cxx::__normal_iterator", ptr %this1, i32 0, i32 0
  %0 = load ptr, ptr %__i.addr, align 8
  %1 = load ptr, ptr %0, align 8
  store ptr %1, ptr %_M_current, align 8
  ret void
}

; Function Attrs: mustprogress uwtable
define linkonce_odr hidden void @_ZNSt15__new_allocatorIN19OpenColorIO_v2_4dev10FormatInfoEE9constructIS1_JRKS1_EEEvPT_DpOT0_(ptr noundef nonnull align 1 dereferenceable(1) %this, ptr noundef %__p, ptr noundef nonnull align 8 dereferenceable(72) %__args) #5 comdat align 2 {
entry:
  %this.addr = alloca ptr, align 8
  %__p.addr = alloca ptr, align 8
  %__args.addr = alloca ptr, align 8
  store ptr %this, ptr %this.addr, align 8
  store ptr %__p, ptr %__p.addr, align 8
  store ptr %__args, ptr %__args.addr, align 8
  %0 = load ptr, ptr %__p.addr, align 8
  %1 = load ptr, ptr %__args.addr, align 8
  call void @_ZN19OpenColorIO_v2_4dev10FormatInfoC2ERKS0_(ptr noundef nonnull align 8 dereferenceable(72) %0, ptr noundef nonnull align 8 dereferenceable(72) %1)
  ret void
}

; Function Attrs: mustprogress nounwind uwtable
define linkonce_odr hidden ptr @_ZNSt6vectorIN19OpenColorIO_v2_4dev10FormatInfoESaIS1_EE3endEv(ptr noundef nonnull align 8 dereferenceable(24) %this) #4 comdat align 2 {
entry:
  %retval = alloca %"class.__gnu_cxx::__normal_iterator", align 8
  %this.addr = alloca ptr, align 8
  store ptr %this, ptr %this.addr, align 8
  %this1 = load ptr, ptr %this.addr, align 8
  %_M_impl = getelementptr inbounds %"struct.std::_Vector_base", ptr %this1, i32 0, i32 0
  %_M_finish = getelementptr inbounds %"struct.std::_Vector_base<OpenColorIO_v2_4dev::FormatInfo, std::allocator<OpenColorIO_v2_4dev::FormatInfo>>::_Vector_impl_data", ptr %_M_impl, i32 0, i32 1
  call void @_ZN9__gnu_cxx17__normal_iteratorIPN19OpenColorIO_v2_4dev10FormatInfoESt6vectorIS2_SaIS2_EEEC2ERKS3_(ptr noundef nonnull align 8 dereferenceable(8) %retval, ptr noundef nonnull align 8 dereferenceable(8) %_M_finish) #3
  %coerce.dive = getelementptr inbounds %"class.__gnu_cxx::__normal_iterator", ptr %retval, i32 0, i32 0
  %0 = load ptr, ptr %coerce.dive, align 8
  ret ptr %0
}

; Function Attrs: mustprogress uwtable
define linkonce_odr hidden void @_ZNSt16allocator_traitsISaIN19OpenColorIO_v2_4dev10FormatInfoEEE9constructIS1_JRKS1_EEEvRS2_PT_DpOT0_(ptr noundef nonnull align 1 dereferenceable(1) %__a, ptr noundef %__p, ptr noundef nonnull align 8 dereferenceable(72) %__args) #5 comdat align 2 {
entry:
  %__a.addr = alloca ptr, align 8
  %__p.addr = alloca ptr, align 8
  %__args.addr = alloca ptr, align 8
  store ptr %__a, ptr %__a.addr, align 8
  store ptr %__p, ptr %__p.addr, align 8
  store ptr %__args, ptr %__args.addr, align 8
  %0 = load ptr, ptr %__a.addr, align 8
  %1 = load ptr, ptr %__p.addr, align 8
  %2 = load ptr, ptr %__args.addr, align 8
  call void @_ZNSt15__new_allocatorIN19OpenColorIO_v2_4dev10FormatInfoEE9constructIS1_JRKS1_EEEvPT_DpOT0_(ptr noundef nonnull align 1 dereferenceable(1) %0, ptr noundef %1, ptr noundef nonnull align 8 dereferenceable(72) %2)
  ret void
}

; Function Attrs: mustprogress nounwind uwtable
define linkonce_odr hidden void @_ZN19OpenColorIO_v2_4dev10FormatInfoD2Ev(ptr noundef nonnull align 8 dereferenceable(72) %this) unnamed_addr #4 comdat align 2 {
entry:
  %this.addr = alloca ptr, align 8
  store ptr %this, ptr %this.addr, align 8
  %this1 = load ptr, ptr %this.addr, align 8
  %extension = getelementptr inbounds %"struct.OpenColorIO_v2_4dev::FormatInfo", ptr %this1, i32 0, i32 1
  call void @_ZNSt7__cxx1112basic_stringIcSt11char_traitsIcESaIcEED1Ev(ptr noundef nonnull align 8 dereferenceable(32) %extension) #3
  %name = getelementptr inbounds %"struct.OpenColorIO_v2_4dev::FormatInfo", ptr %this1, i32 0, i32 0
  call void @_ZNSt7__cxx1112basic_stringIcSt11char_traitsIcESaIcEED1Ev(ptr noundef nonnull align 8 dereferenceable(32) %name) #3
  ret void
}

; Function Attrs: mustprogress uwtable
define linkonce_odr hidden void @_ZNSt6vectorIN19OpenColorIO_v2_4dev10FormatInfoESaIS1_EE9push_backERKS1_(ptr noundef nonnull align 8 dereferenceable(24) %this, ptr noundef nonnull align 8 dereferenceable(72) %__x) #5 comdat align 2 {
entry:
  %this.addr = alloca ptr, align 8
  %__x.addr = alloca ptr, align 8
  %agg.tmp = alloca %"class.__gnu_cxx::__normal_iterator", align 8
  store ptr %this, ptr %this.addr, align 8
  store ptr %__x, ptr %__x.addr, align 8
  %this1 = load ptr, ptr %this.addr, align 8
  %_M_impl = getelementptr inbounds %"struct.std::_Vector_base", ptr %this1, i32 0, i32 0
  %_M_finish = getelementptr inbounds %"struct.std::_Vector_base<OpenColorIO_v2_4dev::FormatInfo, std::allocator<OpenColorIO_v2_4dev::FormatInfo>>::_Vector_impl_data", ptr %_M_impl, i32 0, i32 1
  %0 = load ptr, ptr %_M_finish, align 8
  %_M_impl2 = getelementptr inbounds %"struct.std::_Vector_base", ptr %this1, i32 0, i32 0
  %_M_end_of_storage = getelementptr inbounds %"struct.std::_Vector_base<OpenColorIO_v2_4dev::FormatInfo, std::allocator<OpenColorIO_v2_4dev::FormatInfo>>::_Vector_impl_data", ptr %_M_impl2, i32 0, i32 2
  %1 = load ptr, ptr %_M_end_of_storage, align 8
  %cmp = icmp ne ptr %0, %1
  br i1 %cmp, label %if.then, label %if.else

if.then:                                          ; preds = %entry
  %_M_impl3 = getelementptr inbounds %"struct.std::_Vector_base", ptr %this1, i32 0, i32 0
  %_M_impl4 = getelementptr inbounds %"struct.std::_Vector_base", ptr %this1, i32 0, i32 0
  %_M_finish5 = getelementptr inbounds %"struct.std::_Vector_base<OpenColorIO_v2_4dev::FormatInfo, std::allocator<OpenColorIO_v2_4dev::FormatInfo>>::_Vector_impl_data", ptr %_M_impl4, i32 0, i32 1
  %2 = load ptr, ptr %_M_finish5, align 8
  %3 = load ptr, ptr %__x.addr, align 8
  call void @_ZNSt16allocator_traitsISaIN19OpenColorIO_v2_4dev10FormatInfoEEE9constructIS1_JRKS1_EEEvRS2_PT_DpOT0_(ptr noundef nonnull align 1 dereferenceable(1) %_M_impl3, ptr noundef %2, ptr noundef nonnull align 8 dereferenceable(72) %3)
  %_M_impl6 = getelementptr inbounds %"struct.std::_Vector_base", ptr %this1, i32 0, i32 0
  %_M_finish7 = getelementptr inbounds %"struct.std::_Vector_base<OpenColorIO_v2_4dev::FormatInfo, std::allocator<OpenColorIO_v2_4dev::FormatInfo>>::_Vector_impl_data", ptr %_M_impl6, i32 0, i32 1
  %4 = load ptr, ptr %_M_finish7, align 8
  %incdec.ptr = getelementptr inbounds %"struct.OpenColorIO_v2_4dev::FormatInfo", ptr %4, i32 1
  store ptr %incdec.ptr, ptr %_M_finish7, align 8
  br label %if.end

if.else:                                          ; preds = %entry
  %call = call ptr @_ZNSt6vectorIN19OpenColorIO_v2_4dev10FormatInfoESaIS1_EE3endEv(ptr noundef nonnull align 8 dereferenceable(24) %this1) #3
  %coerce.dive = getelementptr inbounds %"class.__gnu_cxx::__normal_iterator", ptr %agg.tmp, i32 0, i32 0
  store ptr %call, ptr %coerce.dive, align 8
  %5 = load ptr, ptr %__x.addr, align 8
  %coerce.dive8 = getelementptr inbounds %"class.__gnu_cxx::__normal_iterator", ptr %agg.tmp, i32 0, i32 0
  %6 = load ptr, ptr %coerce.dive8, align 8
  call void @_ZNSt6vectorIN19OpenColorIO_v2_4dev10FormatInfoESaIS1_EE17_M_realloc_insertIJRKS1_EEEvN9__gnu_cxx17__normal_iteratorIPS1_S3_EEDpOT_(ptr noundef nonnull align 8 dereferenceable(24) %this1, ptr %6, ptr noundef nonnull align 8 dereferenceable(72) %5)
  br label %if.end

if.end:                                           ; preds = %if.else, %if.then
  ret void
}

; Function Attrs: mustprogress nounwind uwtable
define linkonce_odr hidden void @_ZN19OpenColorIO_v2_4dev10FormatInfoC2Ev(ptr noundef nonnull align 8 dereferenceable(72) %this) unnamed_addr #4 comdat align 2 {
entry:
  %this.addr = alloca ptr, align 8
  store ptr %this, ptr %this.addr, align 8
  %this1 = load ptr, ptr %this.addr, align 8
  %name = getelementptr inbounds %"struct.OpenColorIO_v2_4dev::FormatInfo", ptr %this1, i32 0, i32 0
  call void @_ZNSt7__cxx1112basic_stringIcSt11char_traitsIcESaIcEEC1Ev(ptr noundef nonnull align 8 dereferenceable(32) %name) #3
  %extension = getelementptr inbounds %"struct.OpenColorIO_v2_4dev::FormatInfo", ptr %this1, i32 0, i32 1
  call void @_ZNSt7__cxx1112basic_stringIcSt11char_traitsIcESaIcEEC1Ev(ptr noundef nonnull align 8 dereferenceable(32) %extension) #3
  %capabilities = getelementptr inbounds %"struct.OpenColorIO_v2_4dev::FormatInfo", ptr %this1, i32 0, i32 2
  store i32 0, ptr %capabilities, align 8
  %bake_capabilities = getelementptr inbounds %"struct.OpenColorIO_v2_4dev::FormatInfo", ptr %this1, i32 0, i32 3
  store i32 0, ptr %bake_capabilities, align 4
  ret void
}

; Function Attrs: mustprogress uwtable
define internal void @_ZNK19OpenColorIO_v2_4dev12_GLOBAL__N_115LocalFileFormat13getFormatInfoERSt6vectorINS_10FormatInfoESaIS3_EE(ptr noundef nonnull align 8 dereferenceable(8) %this, ptr noundef nonnull align 8 dereferenceable(24) %formatInfoVec) unnamed_addr #5 align 2 personality ptr @__gxx_personality_v0 {
entry:
  %this.addr = alloca ptr, align 8
  %formatInfoVec.addr = alloca ptr, align 8
  %info = alloca %"struct.OpenColorIO_v2_4dev::FormatInfo", align 8
  %exn.slot = alloca ptr, align 8
  %ehselector.slot = alloca i32, align 4
  store ptr %this, ptr %this.addr, align 8
  store ptr %formatInfoVec, ptr %formatInfoVec.addr, align 8
  call void @_ZN19OpenColorIO_v2_4dev10FormatInfoC2Ev(ptr noundef nonnull align 8 dereferenceable(72) %info)
  %name = getelementptr inbounds %"struct.OpenColorIO_v2_4dev::FormatInfo", ptr %info, i32 0, i32 0
  %call = invoke noundef nonnull align 8 dereferenceable(32) ptr @_ZNSt7__cxx1112basic_stringIcSt11char_traitsIcESaIcEEaSEPKc(ptr noundef nonnull align 8 dereferenceable(32) %name, ptr noundef @_ZN19OpenColorIO_v2_4devL38FILEFORMAT_COLOR_CORRECTION_COLLECTIONE)
          to label %invoke.cont unwind label %lpad

invoke.cont:                                      ; preds = %entry
  %extension = getelementptr inbounds %"struct.OpenColorIO_v2_4dev::FormatInfo", ptr %info, i32 0, i32 1
  %call3 = invoke noundef nonnull align 8 dereferenceable(32) ptr @_ZNSt7__cxx1112basic_stringIcSt11char_traitsIcESaIcEEaSEPKc(ptr noundef nonnull align 8 dereferenceable(32) %extension, ptr noundef @.str.2)
          to label %invoke.cont2 unwind label %lpad

invoke.cont2:                                     ; preds = %invoke.cont
  %capabilities = getelementptr inbounds %"struct.OpenColorIO_v2_4dev::FormatInfo", ptr %info, i32 0, i32 2
  store i32 5, ptr %capabilities, align 8
  %0 = load ptr, ptr %formatInfoVec.addr, align 8
  invoke void @_ZNSt6vectorIN19OpenColorIO_v2_4dev10FormatInfoESaIS1_EE9push_backERKS1_(ptr noundef nonnull align 8 dereferenceable(24) %0, ptr noundef nonnull align 8 dereferenceable(72) %info)
          to label %invoke.cont4 unwind label %lpad

invoke.cont4:                                     ; preds = %invoke.cont2
  call void @_ZN19OpenColorIO_v2_4dev10FormatInfoD2Ev(ptr noundef nonnull align 8 dereferenceable(72) %info) #3
  ret void

lpad:                                             ; preds = %invoke.cont2, %invoke.cont, %entry
  %1 = landingpad { ptr, i32 }
          cleanup
  %2 = extractvalue { ptr, i32 } %1, 0
  store ptr %2, ptr %exn.slot, align 8
  %3 = extractvalue { ptr, i32 } %1, 1
  store i32 %3, ptr %ehselector.slot, align 4
  call void @_ZN19OpenColorIO_v2_4dev10FormatInfoD2Ev(ptr noundef nonnull align 8 dereferenceable(72) %info) #3
  br label %eh.resume

eh.resume:                                        ; preds = %lpad
  %exn = load ptr, ptr %exn.slot, align 8
  %sel = load i32, ptr %ehselector.slot, align 4
  %lpad.val = insertvalue { ptr, i32 } poison, ptr %exn, 0
  %lpad.val5 = insertvalue { ptr, i32 } %lpad.val, i32 %sel, 1
  resume { ptr, i32 } %lpad.val5
}